target datalayout = "e-m:e-p270:32:32-p271:32:32-p272:64:64-i64:64-i128:128-f80:128-n8:16:32:64-S128"
target triple = "x86_64-pc-linux-gnu"

%struct.hwloc_topology = type { i32, i32, i32, ptr, ptr, i64, [20 x i32], [20 x i32], i64, i64, i32, ptr, i64, ptr, i64, [6 x %struct.hwloc_special_level_s], ptr, ptr, %struct.hwloc_binding_hooks, %struct.hwloc_topology_support, %struct.hwloc_infos_s, ptr, ptr, i32, ptr, ptr, i32, i32, ptr, i32, i32, ptr, i32, i32, i32, [5 x float], i32, ptr, ptr, i32, i32, ptr, i32, %struct.hwloc_numanode_attr_s, i32, i32, ptr, i64, i32, ptr, ptr, ptr }
%struct.hwloc_special_level_s = type { i32, ptr, ptr, ptr }
%struct.hwloc_binding_hooks = type { ptr, ptr, ptr, ptr, ptr, ptr, ptr, ptr, ptr, ptr, ptr, ptr, ptr, ptr, ptr, ptr, ptr, ptr, ptr, ptr, ptr, ptr, ptr, ptr }
%struct.hwloc_topology_support = type { ptr, ptr, ptr, ptr }
%struct.hwloc_infos_s = type { ptr, i32, i32 }
%struct.hwloc_numanode_attr_s = type { i64, i32, ptr }
%struct.hwloc_internal_cpukind_s = type { ptr, i32, i32, i64, %struct.hwloc_infos_s }

; Function Attrs: nounwind uwtable
define i32 @hwloc_cpukinds_get_by_cpuset(ptr noundef %0, ptr noundef %1, i64 noundef %2) #0 {
  %4 = alloca i32, align 4
  %5 = alloca ptr, align 8
  %6 = alloca ptr, align 8
  %7 = alloca i64, align 8
  %8 = alloca i32, align 4
  %9 = alloca i32, align 4
  %10 = alloca ptr, align 8
  %11 = alloca i32, align 4
  store ptr %0, ptr %5, align 8, !tbaa !3
  store ptr %1, ptr %6, align 8, !tbaa !64
  store i64 %2, ptr %7, align 8, !tbaa !44
  call void @llvm.lifetime.start.p0(i64 4, ptr %8) #14
  %12 = load i64, ptr %7, align 8, !tbaa !44
  %13 = icmp ne i64 %12, 0
  br i1 %13, label %14, label %16

14:                                               ; preds = %3
  %15 = call ptr @__errno_location() #18
  store i32 22, ptr %15, align 4, !tbaa !35
  store i32 -1, ptr %4, align 4
  store i32 1, ptr %9, align 4
  br label %69

16:                                               ; preds = %3
  %17 = load ptr, ptr %6, align 8, !tbaa !64
  %18 = icmp ne ptr %17, null
  br i1 %18, label %19, label %23

19:                                               ; preds = %16
  %20 = load ptr, ptr %6, align 8, !tbaa !64
  %21 = call i32 @hwloc_bitmap_iszero(ptr noundef %20) #16
  %22 = icmp ne i32 %21, 0
  br i1 %22, label %23, label %25

23:                                               ; preds = %19, %16
  %24 = call ptr @__errno_location() #18
  store i32 22, ptr %24, align 4, !tbaa !35
  store i32 -1, ptr %4, align 4
  store i32 1, ptr %9, align 4
  br label %69

25:                                               ; preds = %19
  store i32 0, ptr %8, align 4, !tbaa !35
  br label %26

26:                                               ; preds = %64, %25
  %27 = load i32, ptr %8, align 4, !tbaa !35
  %28 = load ptr, ptr %5, align 8, !tbaa !3
  %29 = getelementptr inbounds nuw %struct.hwloc_topology, ptr %28, i32 0, i32 29
  %30 = load i32, ptr %29, align 8, !tbaa !33
  %31 = icmp ult i32 %27, %30
  br i1 %31, label %32, label %67

32:                                               ; preds = %26
  call void @llvm.lifetime.start.p0(i64 8, ptr %10) #14
  %33 = load ptr, ptr %5, align 8, !tbaa !3
  %34 = getelementptr inbounds nuw %struct.hwloc_topology, ptr %33, i32 0, i32 31
  %35 = load ptr, ptr %34, align 8, !tbaa !8
  %36 = load i32, ptr %8, align 4, !tbaa !35
  %37 = zext i32 %36 to i64
  %38 = getelementptr inbounds nuw %struct.hwloc_internal_cpukind_s, ptr %35, i64 %37
  store ptr %38, ptr %10, align 8, !tbaa !36
  call void @llvm.lifetime.start.p0(i64 4, ptr %11) #14
  %39 = load ptr, ptr %6, align 8, !tbaa !64
  %40 = load ptr, ptr %10, align 8, !tbaa !36
  %41 = getelementptr inbounds nuw %struct.hwloc_internal_cpukind_s, ptr %40, i32 0, i32 0
  %42 = load ptr, ptr %41, align 8, !tbaa !37
  %43 = call i32 @hwloc_bitmap_compare_inclusion(ptr noundef %39, ptr noundef %42) #16
  store i32 %43, ptr %11, align 4, !tbaa !35
  %44 = load i32, ptr %11, align 4, !tbaa !35
  %45 = icmp eq i32 %44, 0
  br i1 %45, label %49, label %46

46:                                               ; preds = %32
  %47 = load i32, ptr %11, align 4, !tbaa !35
  %48 = icmp eq i32 %47, 1
  br i1 %48, label %49, label %51

49:                                               ; preds = %46, %32
  %50 = load i32, ptr %8, align 4, !tbaa !35
  store i32 %50, ptr %4, align 4
  store i32 1, ptr %9, align 4
  br label %61

51:                                               ; preds = %46
  %52 = load i32, ptr %11, align 4, !tbaa !35
  %53 = icmp eq i32 %52, 3
  br i1 %53, label %57, label %54

54:                                               ; preds = %51
  %55 = load i32, ptr %11, align 4, !tbaa !35
  %56 = icmp eq i32 %55, 2
  br i1 %56, label %57, label %59

57:                                               ; preds = %54, %51
  %58 = call ptr @__errno_location() #18
  store i32 18, ptr %58, align 4, !tbaa !35
  store i32 -1, ptr %4, align 4
  store i32 1, ptr %9, align 4
  br label %61

59:                                               ; preds = %54
  br label %60

60:                                               ; preds = %59
  store i32 0, ptr %9, align 4
  br label %61

61:                                               ; preds = %60, %57, %49
  call void @llvm.lifetime.end.p0(i64 4, ptr %11) #14
  call void @llvm.lifetime.end.p0(i64 8, ptr %10) #14
  %62 = load i32, ptr %9, align 4
  switch i32 %62, label %69 [
    i32 0, label %63
  ]

63:                                               ; preds = %61
  br label %64

64:                                               ; preds = %63
  %65 = load i32, ptr %8, align 4, !tbaa !35
  %66 = add i32 %65, 1
  store i32 %66, ptr %8, align 4, !tbaa !35
  br label %26, !llvm.loop !100

67:                                               ; preds = %26
  %68 = call ptr @__errno_location() #18
  store i32 2, ptr %68, align 4, !tbaa !35
  store i32 -1, ptr %4, align 4
  store i32 1, ptr %9, align 4
  br label %69

69:                                               ; preds = %67, %61, %23, %14
  call void @llvm.lifetime.end.p0(i64 4, ptr %8) #14
  %70 = load i32, ptr %4, align 4
  ret i32 %70
}