; Function Attrs: nofree nounwind memory(readwrite, inaccessiblemem: read) uwtable
define i32 @hwloc_cpukinds_get_by_cpuset(ptr noundef readonly captures(none) %0, ptr noundef %1, i64 noundef %2) local_unnamed_addr #16 {
  %.not = icmp eq i64 %2, 0
  br i1 %.not, label %6, label %4

4:                                                ; preds = %3
  %5 = tail call ptr @__errno_location() #27
  store i32 22, ptr %5, align 4, !tbaa !74
  br label %.thread

6:                                                ; preds = %3
  %.not23 = icmp eq ptr %1, null
  br i1 %.not23, label %13, label %7

7:                                                ; preds = %6
  %8 = tail call i32 @hwloc_bitmap_iszero(ptr noundef nonnull %1) #24
  %.not24 = icmp eq i32 %8, 0
  br i1 %.not24, label %.preheader, label %13

.preheader:                                       ; preds = %7
  %9 = getelementptr inbounds nuw i8, ptr %0, i64 760
  %10 = load i32, ptr %9, align 8, !tbaa !3
  %.not30 = icmp eq i32 %10, 0
  br i1 %.not30, label %._crit_edge, label %.lr.ph

.lr.ph:                                           ; preds = %.preheader
  %11 = getelementptr inbounds nuw i8, ptr %0, i64 768
  %12 = load ptr, ptr %11, align 8, !tbaa !31
  %wide.trip.count = zext i32 %10 to i64
  br label %15

13:                                               ; preds = %7, %6
  %14 = tail call ptr @__errno_location() #27
  store i32 22, ptr %14, align 4, !tbaa !74
  br label %.thread

15:                                               ; preds = %.lr.ph, %23
  %indvars.iv = phi i64 [ 0, %.lr.ph ], [ %indvars.iv.next, %23 ]
  %16 = getelementptr inbounds nuw %struct.hwloc_internal_cpukind_s, ptr %12, i64 %indvars.iv
  %17 = load ptr, ptr %16, align 8, !tbaa !32
  %18 = tail call i32 @hwloc_bitmap_compare_inclusion(ptr noundef nonnull %1, ptr noundef %17) #24
  %or.cond = icmp ult i32 %18, 2
  br i1 %or.cond, label %.thread.loopexit, label %19

19:                                               ; preds = %15
  %20 = and i32 %18, -2
  %or.cond3 = icmp eq i32 %20, 2
  br i1 %or.cond3, label %21, label %23

21:                                               ; preds = %19
  %22 = tail call ptr @__errno_location() #27
  store i32 18, ptr %22, align 4, !tbaa !74
  br label %.thread

23:                                               ; preds = %19
  %indvars.iv.next = add nuw nsw i64 %indvars.iv, 1
  %exitcond.not = icmp eq i64 %indvars.iv.next, %wide.trip.count
  br i1 %exitcond.not, label %._crit_edge, label %15, !llvm.loop !89

._crit_edge:                                      ; preds = %23, %.preheader
  %24 = tail call ptr @__errno_location() #27
  store i32 2, ptr %24, align 4, !tbaa !74
  br label %.thread

.thread.loopexit:                                 ; preds = %15
  %25 = trunc nuw i64 %indvars.iv to i32
  br label %.thread

.thread:                                          ; preds = %.thread.loopexit, %21, %._crit_edge, %13, %4
  %.0 = phi i32 [ -1, %4 ], [ -1, %13 ], [ -1, %._crit_edge ], [ -1, %21 ], [ %25, %.thread.loopexit ]
  ret i32 %.0
}